; Function Attrs: nounwind uwtable
define range(i32 0, 2) i32 @BN_lshift(ptr noundef %0, ptr noundef readonly captures(none) %1, i32 noundef %2) local_unnamed_addr #0 {
  %4 = icmp slt i32 %2, 0
  br i1 %4, label %5, label %6

5:                                                ; preds = %3
  tail call void @ERR_new() #4
  tail call void @ERR_set_debug(ptr noundef nonnull @.str, i32 noundef 86, ptr noundef nonnull @__func__.BN_lshift) #4
  tail call void (i32, i32, ptr, ...) @ERR_set_error(i32 noundef 3, i32 noundef 119, ptr noundef null) #4
  br label %63

6:                                                ; preds = %3
  %7 = lshr i32 %2, 6
  %8 = getelementptr inbounds nuw i8, ptr %1, i64 8
  %9 = load i32, ptr %8, align 8, !tbaa !10
  %10 = add nuw nsw i32 %7, 1
  %11 = add i32 %9, %10
  %12 = tail call ptr @bn_wexpand(ptr noundef %0, i32 noundef %11) #4
  %13 = icmp eq ptr %12, null
  br i1 %13, label %bn_lshift_fixed_top.exit, label %14

14:                                               ; preds = %6
  %15 = load i32, ptr %8, align 8, !tbaa !10
  %.not.i = icmp eq i32 %15, 0
  br i1 %.not.i, label %47, label %16

16:                                               ; preds = %14
  %17 = and i32 %2, 63
  %18 = sub nsw i32 0, %2
  %19 = and i32 %18, 63
  %20 = zext nneg i32 %19 to i64
  %21 = sub nsw i64 0, %20
  %22 = lshr i64 %21, 8
  %23 = or i64 %22, %21
  %24 = load ptr, ptr %1, align 8, !tbaa !11
  %25 = load ptr, ptr %0, align 8, !tbaa !11
  %26 = zext nneg i32 %7 to i64
  %27 = getelementptr inbounds nuw i64, ptr %25, i64 %26
  %28 = sext i32 %15 to i64
  %29 = getelementptr i64, ptr %24, i64 %28
  %30 = getelementptr i8, ptr %29, i64 -8
  %31 = load i64, ptr %30, align 8, !tbaa !12
  %32 = lshr i64 %31, %20
  %33 = and i64 %32, %23
  %34 = getelementptr inbounds i64, ptr %27, i64 %28
  store i64 %33, ptr %34, align 8, !tbaa !12
  %invariant.gep.i = getelementptr i8, ptr %24, i64 -16
  %35 = icmp sgt i32 %15, 1
  %36 = zext nneg i32 %17 to i64
  br i1 %35, label %.lr.ph.i, label %._crit_edge.i

.lr.ph.i:                                         ; preds = %16
  %37 = zext nneg i32 %15 to i64
  br label %38

38:                                               ; preds = %38, %.lr.ph.i
  %indvars.iv.i = phi i64 [ %37, %.lr.ph.i ], [ %indvars.iv.next.i, %38 ]
  %.04854.i = phi i64 [ %31, %.lr.ph.i ], [ %40, %38 ]
  %indvars.iv.next.i = add nsw i64 %indvars.iv.i, -1
  %39 = shl i64 %.04854.i, %36
  %gep.i = getelementptr i64, ptr %invariant.gep.i, i64 %indvars.iv.i
  %40 = load i64, ptr %gep.i, align 8, !tbaa !12
  %41 = lshr i64 %40, %20
  %42 = and i64 %41, %23
  %43 = or i64 %42, %39
  %44 = getelementptr inbounds nuw i64, ptr %27, i64 %indvars.iv.next.i
  store i64 %43, ptr %44, align 8, !tbaa !12
  %45 = icmp samesign ugt i64 %indvars.iv.i, 2
  br i1 %45, label %38, label %._crit_edge.i, !llvm.loop !17

._crit_edge.i:                                    ; preds = %38, %16
  %.048.lcssa.i = phi i64 [ %31, %16 ], [ %40, %38 ]
  %46 = shl i64 %.048.lcssa.i, %36
  store i64 %46, ptr %27, align 8, !tbaa !12
  br label %51

47:                                               ; preds = %14
  %48 = load ptr, ptr %0, align 8, !tbaa !11
  %49 = zext nneg i32 %7 to i64
  %50 = getelementptr inbounds nuw i64, ptr %48, i64 %49
  store i64 0, ptr %50, align 8, !tbaa !12
  br label %51

51:                                               ; preds = %47, %._crit_edge.i
  %52 = phi ptr [ %48, %47 ], [ %25, %._crit_edge.i ]
  %.not52.i = icmp ult i32 %2, 64
  br i1 %.not52.i, label %56, label %53

53:                                               ; preds = %51
  %54 = shl nuw nsw i32 %7, 3
  %55 = zext nneg i32 %54 to i64
  tail call void @llvm.memset.p0.i64(ptr nonnull align 8 %52, i8 0, i64 %55, i1 false)
  %.pre.i = load i32, ptr %8, align 8, !tbaa !10
  br label %56

56:                                               ; preds = %53, %51
  %57 = phi i32 [ %.pre.i, %53 ], [ %15, %51 ]
  %58 = getelementptr inbounds nuw i8, ptr %1, i64 16
  %59 = load i32, ptr %58, align 8, !tbaa !3
  %60 = getelementptr inbounds nuw i8, ptr %0, i64 16
  store i32 %59, ptr %60, align 8, !tbaa !3
  %61 = add i32 %57, %10
  %62 = getelementptr inbounds nuw i8, ptr %0, i64 8
  store i32 %61, ptr %62, align 8, !tbaa !10
  br label %bn_lshift_fixed_top.exit

bn_lshift_fixed_top.exit:                         ; preds = %6, %56
  %.0.i = phi i32 [ 1, %56 ], [ 0, %6 ]
  tail call void @bn_correct_top(ptr noundef %0) #4
  br label %63

63:                                               ; preds = %bn_lshift_fixed_top.exit, %5
  %.0 = phi i32 [ 0, %5 ], [ %.0.i, %bn_lshift_fixed_top.exit ]
  ret i32 %.0
}